; ModuleID = '63/1985.c'
source_filename = "63/1985.c"
target datalayout = "e-m:e-p270:32:32-p271:32:32-p272:64:64-i64:64-f80:128-n8:16:32:64-S128"
target triple = "x86_64-pc-linux-gnu"

@.str = private unnamed_addr constant [6 x i8] c"%d %d\00", align 1
@.str.1 = private unnamed_addr constant [3 x i8] c"%d\00", align 1
@.str.2 = private unnamed_addr constant [4 x i8] c"%d \00", align 1
@.str.3 = private unnamed_addr constant [4 x i8] c"%d\0A\00", align 1

; Function Attrs: noinline nounwind uwtable
define dso_local i32 @main() #0 {
  %1 = alloca i32, align 4
  %2 = alloca i32, align 4
  %3 = alloca i32, align 4
  %4 = alloca i32, align 4
  %5 = alloca i32, align 4
  %6 = alloca i32, align 4
  %7 = alloca i32, align 4
  %8 = alloca i32, align 4
  %9 = alloca i32, align 4
  %10 = alloca i32, align 4
  %11 = alloca i32, align 4
  %12 = alloca i32, align 4
  %13 = alloca i32, align 4
  %14 = alloca i32, align 4
  %15 = alloca i32, align 4
  %16 = alloca i32, align 4
  %17 = alloca i32, align 4
  %18 = alloca [100 x [100 x i32]], align 16
  %19 = alloca [100 x [100 x i32]], align 16
  %20 = alloca [100 x [100 x i32]], align 16
  store i32 0, i32* %1, align 4
  %21 = call i32 (i8*, ...) @__isoc99_scanf(i8* getelementptr inbounds ([6 x i8], [6 x i8]* @.str, i64 0, i64 0), i32* %2, i32* %3)
  %22 = bitcast [100 x [100 x i32]]* %20 to i8*
  call void @llvm.memset.p0i8.i64(i8* align 16 %22, i8 0, i64 40000, i1 false)
  store i32 0, i32* %8, align 4
  br label %23

23:                                               ; preds = %44, %0
  %24 = load i32, i32* %8, align 4
  %25 = load i32, i32* %2, align 4
  %26 = icmp slt i32 %24, %25
  br i1 %26, label %27, label %47

27:                                               ; preds = %23
  store i32 0, i32* %9, align 4
  br label %28

28:                                               ; preds = %40, %27
  %29 = load i32, i32* %9, align 4
  %30 = load i32, i32* %3, align 4
  %31 = icmp slt i32 %29, %30
  br i1 %31, label %32, label %43

32:                                               ; preds = %28
  %33 = load i32, i32* %8, align 4
  %34 = sext i32 %33 to i64
  %35 = getelementptr inbounds [100 x [100 x i32]], [100 x [100 x i32]]* %18, i64 0, i64 %34
  %36 = load i32, i32* %9, align 4
  %37 = sext i32 %36 to i64
  %38 = getelementptr inbounds [100 x i32], [100 x i32]* %35, i64 0, i64 %37
  %39 = call i32 (i8*, ...) @__isoc99_scanf(i8* getelementptr inbounds ([3 x i8], [3 x i8]* @.str.1, i64 0, i64 0), i32* %38)
  br label %40

40:                                               ; preds = %32
  %41 = load i32, i32* %9, align 4
  %42 = add nsw i32 %41, 1
  store i32 %42, i32* %9, align 4
  br label %28

43:                                               ; preds = %28
  br label %44

44:                                               ; preds = %43
  %45 = load i32, i32* %8, align 4
  %46 = add nsw i32 %45, 1
  store i32 %46, i32* %8, align 4
  br label %23

47:                                               ; preds = %23
  %48 = call i32 (i8*, ...) @__isoc99_scanf(i8* getelementptr inbounds ([6 x i8], [6 x i8]* @.str, i64 0, i64 0), i32* %4, i32* %5)
  store i32 0, i32* %10, align 4
  br label %49

49:                                               ; preds = %70, %47
  %50 = load i32, i32* %10, align 4
  %51 = load i32, i32* %4, align 4
  %52 = icmp slt i32 %50, %51
  br i1 %52, label %53, label %73

53:                                               ; preds = %49
  store i32 0, i32* %11, align 4
  br label %54

54:                                               ; preds = %66, %53
  %55 = load i32, i32* %11, align 4
  %56 = load i32, i32* %5, align 4
  %57 = icmp slt i32 %55, %56
  br i1 %57, label %58, label %69

58:                                               ; preds = %54
  %59 = load i32, i32* %10, align 4
  %60 = sext i32 %59 to i64
  %61 = getelementptr inbounds [100 x [100 x i32]], [100 x [100 x i32]]* %19, i64 0, i64 %60
  %62 = load i32, i32* %11, align 4
  %63 = sext i32 %62 to i64
  %64 = getelementptr inbounds [100 x i32], [100 x i32]* %61, i64 0, i64 %63
  %65 = call i32 (i8*, ...) @__isoc99_scanf(i8* getelementptr inbounds ([3 x i8], [3 x i8]* @.str.1, i64 0, i64 0), i32* %64)
  br label %66

66:                                               ; preds = %58
  %67 = load i32, i32* %11, align 4
  %68 = add nsw i32 %67, 1
  store i32 %68, i32* %11, align 4
  br label %54

69:                                               ; preds = %54
  br label %70

70:                                               ; preds = %69
  %71 = load i32, i32* %10, align 4
  %72 = add nsw i32 %71, 1
  store i32 %72, i32* %10, align 4
  br label %49

73:                                               ; preds = %49
  store i32 0, i32* %13, align 4
  br label %74

74:                                               ; preds = %126, %73
  %75 = load i32, i32* %13, align 4
  %76 = load i32, i32* %2, align 4
  %77 = icmp slt i32 %75, %76
  br i1 %77, label %78, label %129

78:                                               ; preds = %74
  store i32 0, i32* %14, align 4
  br label %79

79:                                               ; preds = %122, %78
  %80 = load i32, i32* %14, align 4
  %81 = load i32, i32* %5, align 4
  %82 = icmp slt i32 %80, %81
  br i1 %82, label %83, label %125

83:                                               ; preds = %79
  store i32 0, i32* %15, align 4
  br label %84

84:                                               ; preds = %118, %83
  %85 = load i32, i32* %15, align 4
  %86 = load i32, i32* %3, align 4
  %87 = icmp slt i32 %85, %86
  br i1 %87, label %88, label %121

88:                                               ; preds = %84
  %89 = load i32, i32* %13, align 4
  %90 = sext i32 %89 to i64
  %91 = getelementptr inbounds [100 x [100 x i32]], [100 x [100 x i32]]* %20, i64 0, i64 %90
  %92 = load i32, i32* %14, align 4
  %93 = sext i32 %92 to i64
  %94 = getelementptr inbounds [100 x i32], [100 x i32]* %91, i64 0, i64 %93
  %95 = load i32, i32* %94, align 4
  %96 = load i32, i32* %13, align 4
  %97 = sext i32 %96 to i64
  %98 = getelementptr inbounds [100 x [100 x i32]], [100 x [100 x i32]]* %18, i64 0, i64 %97
  %99 = load i32, i32* %15, align 4
  %100 = sext i32 %99 to i64
  %101 = getelementptr inbounds [100 x i32], [100 x i32]* %98, i64 0, i64 %100
  %102 = load i32, i32* %101, align 4
  %103 = load i32, i32* %15, align 4
  %104 = sext i32 %103 to i64
  %105 = getelementptr inbounds [100 x [100 x i32]], [100 x [100 x i32]]* %19, i64 0, i64 %104
  %106 = load i32, i32* %14, align 4
  %107 = sext i32 %106 to i64
  %108 = getelementptr inbounds [100 x i32], [100 x i32]* %105, i64 0, i64 %107
  %109 = load i32, i32* %108, align 4
  %110 = mul nsw i32 %102, %109
  %111 = add nsw i32 %95, %110
  %112 = load i32, i32* %13, align 4
  %113 = sext i32 %112 to i64
  %114 = getelementptr inbounds [100 x [100 x i32]], [100 x [100 x i32]]* %20, i64 0, i64 %113
  %115 = load i32, i32* %14, align 4
  %116 = sext i32 %115 to i64
  %117 = getelementptr inbounds [100 x i32], [100 x i32]* %114, i64 0, i64 %116
  store i32 %111, i32* %117, align 4
  br label %118

118:                                              ; preds = %88
  %119 = load i32, i32* %15, align 4
  %120 = add nsw i32 %119, 1
  store i32 %120, i32* %15, align 4
  br label %84

121:                                              ; preds = %84
  br label %122

122:                                              ; preds = %121
  %123 = load i32, i32* %14, align 4
  %124 = add nsw i32 %123, 1
  store i32 %124, i32* %14, align 4
  br label %79

125:                                              ; preds = %79
  br label %126

126:                                              ; preds = %125
  %127 = load i32, i32* %13, align 4
  %128 = add nsw i32 %127, 1
  store i32 %128, i32* %13, align 4
  br label %74

129:                                              ; preds = %74
  store i32 0, i32* %16, align 4
  br label %130

130:                                              ; preds = %167, %129
  %131 = load i32, i32* %16, align 4
  %132 = load i32, i32* %2, align 4
  %133 = icmp slt i32 %131, %132
  br i1 %133, label %134, label %170

134:                                              ; preds = %130
  store i32 0, i32* %17, align 4
  br label %135

135:                                              ; preds = %163, %134
  %136 = load i32, i32* %17, align 4
  %137 = load i32, i32* %5, align 4
  %138 = icmp slt i32 %136, %137
  br i1 %138, label %139, label %166

139:                                              ; preds = %135
  %140 = load i32, i32* %17, align 4
  %141 = load i32, i32* %5, align 4
  %142 = sub nsw i32 %141, 1
  %143 = icmp ne i32 %140, %142
  br i1 %143, label %144, label %153

144:                                              ; preds = %139
  %145 = load i32, i32* %16, align 4
  %146 = sext i32 %145 to i64
  %147 = getelementptr inbounds [100 x [100 x i32]], [100 x [100 x i32]]* %20, i64 0, i64 %146
  %148 = load i32, i32* %17, align 4
  %149 = sext i32 %148 to i64
  %150 = getelementptr inbounds [100 x i32], [100 x i32]* %147, i64 0, i64 %149
  %151 = load i32, i32* %150, align 4
  %152 = call i32 (i8*, ...) @printf(i8* getelementptr inbounds ([4 x i8], [4 x i8]* @.str.2, i64 0, i64 0), i32 %151)
  br label %162

153:                                              ; preds = %139
  %154 = load i32, i32* %16, align 4
  %155 = sext i32 %154 to i64
  %156 = getelementptr inbounds [100 x [100 x i32]], [100 x [100 x i32]]* %20, i64 0, i64 %155
  %157 = load i32, i32* %17, align 4
  %158 = sext i32 %157 to i64
  %159 = getelementptr inbounds [100 x i32], [100 x i32]* %156, i64 0, i64 %158
  %160 = load i32, i32* %159, align 4
  %161 = call i32 (i8*, ...) @printf(i8* getelementptr inbounds ([4 x i8], [4 x i8]* @.str.3, i64 0, i64 0), i32 %160)
  br label %162

162:                                              ; preds = %153, %144
  br label %163

163:                                              ; preds = %162
  %164 = load i32, i32* %17, align 4
  %165 = add nsw i32 %164, 1
  store i32 %165, i32* %17, align 4
  br label %135

166:                                              ; preds = %135
  br label %167

167:                                              ; preds = %166
  %168 = load i32, i32* %16, align 4
  %169 = add nsw i32 %168, 1
  store i32 %169, i32* %16, align 4
  br label %130

170:                                              ; preds = %130
  %171 = load i32, i32* %1, align 4
  ret i32 %171
}

declare dso_local i32 @__isoc99_scanf(i8*, ...) #1

; Function Attrs: argmemonly nounwind willreturn
declare void @llvm.memset.p0i8.i64(i8* nocapture writeonly, i8, i64, i1 immarg) #2

declare dso_local i32 @printf(i8*, ...) #1


!llvm.module.flags = !{!0}
!llvm.ident = !{!1}

!0 = !{i32 1, !"wchar_size", i32 4}
!1 = !{!"clang version 10.0.0-4ubuntu1 "}
